(dp0
S'cookies'
p1
(dp2
S'wxloadtime'
p3
S'1535868870_expired'
p4
sS'webwx_data_ticket'
p5
S'gScNhpULj48SQUFnyD/BYzOD'
p6
sS'wxuin'
p7
S'421059255'
p8
sS'login_frequency'
p9
S'2'
p10
sS'MM_WX_NOTIFY_STATE'
p11
S'1'
p12
sS'MM_WX_SOUND_STATE'
p13
g12
sS'webwx_auth_ticket'
p14
S'CIsBEKG93M4OGoAB3e3HQcYK+WVsM5lNBcUeQhp2WtYTVYyDM76dGsF3hmSpivFTDmzulk7QhZElqJTRhXNYvnKi4L3MQUA98Ryx3xAwV+3S2q5OscjygB2uEwjeb0sncLyyq1nIFVq92Qa5TKPPfFzj4eaFsPVFhL7GGerKX5vJPafUdax6/x+MRrY='
p15
sS'last_wxuin'
p16
S'419969435'
p17
sS'webwxuvid'
p18
S'b1036b75c382406aab8c761ca8b4031853ec2516cc7975ebfcc3203c3e17b61b89afdf11594f1bbb4d707ec0e9ba913c'
p19
sS'wxpluginkey'
p20
S'1535619453'
p21
sS'wxsid'
p22
S'Mv19NVqcK8lRjek3'
p23
sS'mm_lang'
p24
S'zh_CN'
p25
ssS'version'
p26
S'1.2.32'
p27
sS'storage'
p28
(dp29
S'userName'
p30
V
p31
sS'lastInputUserName'
p32
NsS'memberList'
p33
(lp34
(dp35
S'UserName'
p36
g31
sS'City'
p37
S''
p38
sS'DisplayName'
p39
g38
sS'UniFriend'
p40
I0
sS'OwnerUin'
p41
I0
sS'MemberList'
p42
(lp43
sS'PYQuanPin'
p44
g31
sS'RemarkPYInitial'
p45
g31
sS'Uin'
p46
I0
sS'AppAccountFlag'
p47
I0
sS'VerifyFlag'
p48
I0
sS'Province'
p49
g38
sS'KeyWord'
p50
g38
sS'RemarkName'
p51
g31
sS'PYInitial'
p52
g31
sS'ChatRoomId'
p53
I0
sS'HideInputBarFlag'
p54
I0
sVHeadImgFlag
p55
I0
sS'EncryChatRoomId'
p56
g38
sS'AttrStatus'
p57
I0
sS'SnsFlag'
p58
I0
sS'MemberCount'
p59
I0
sVWebWxPluginSwitch
p60
I0
sS'Alias'
p61
g38
sS'Signature'
p62
g31
sS'ContactFlag'
p63
I0
sS'NickName'
p64
g31
sS'RemarkPYQuanPin'
p65
g31
sS'HeadImgUrl'
p66
g31
sS'Sex'
p67
I0
sS'StarFriend'
p68
I0
sS'Statues'
p69
I0
sasS'chatroomList'
p70
(lp71
sS'nickName'
p72
g31
sS'mpList'
p73
(lp74
ssS'loginInfo'
p75
(dp76
S'SyncKey'
p77
(dp78
VCount
p79
I0
sVList
p80
(lp81
ssS'syncUrl'
p82
S'https://webpush.wx.qq.com/cgi-bin/mmwebwx-bin'
p83
sS'skey'
p84
V@crypt_6fddcf8d_8c9108086a45aafb2eee879284f8b7fb
p85
sS'wxuin'
p86
V421059255
p87
sS'synckey'
p88
g38
sS'url'
p89
Vhttps://wx.qq.com/cgi-bin/mmwebwx-bin
p90
sS'pass_ticket'
p91
VS3HdnK7NWP1jGbPi0bVzYBONfTuaRW5fpD8tZa19Cw7OVhNJd9cAVw95j8xdqlaS
p92
sS'wxsid'
p93
VMv19NVqcK8lRjek3
p94
sS'BaseRequest'
p95
(dp96
S'Sid'
p97
g94
sS'Skey'
p98
g85
sS'DeviceID'
p99
g92
sg46
g87
ssS'User'
p100
g35
sS'fileUrl'
p101
S'https://file.wx.qq.com/cgi-bin/mmwebwx-bin'
p102
sS'InviteStartCount'
p103
I0
sS'deviceid'
p104
S'e990297768755327'
p105
ss.